target datalayout = "e-m:e-p270:32:32-p271:32:32-p272:64:64-i64:64-i128:128-f80:128-n8:16:32:64-S128"
target triple = "x86_64-pc-linux-gnu"

%struct.asn1_string_st = type { i32, i32, ptr, i64 }
%struct.asn1_type_st = type { i32, %union.anon }
%union.anon = type { ptr }

; Function Attrs: nounwind uwtable
define ptr @PKCS7_get_smimecap(ptr noundef %0) #0 {
  %2 = alloca ptr, align 8
  %3 = alloca ptr, align 8
  %4 = alloca ptr, align 8
  %5 = alloca ptr, align 8
  %6 = alloca i32, align 4
  store ptr %0, ptr %3, align 8, !tbaa !3
  call void @llvm.lifetime.start.p0(i64 8, ptr %4) #4
  call void @llvm.lifetime.start.p0(i64 8, ptr %5) #4
  %7 = load ptr, ptr %3, align 8, !tbaa !3
  %8 = call ptr @PKCS7_get_signed_attribute(ptr noundef %7, i32 noundef 167)
  store ptr %8, ptr %4, align 8, !tbaa !18
  %9 = load ptr, ptr %4, align 8, !tbaa !18
  %10 = icmp eq ptr %9, null
  br i1 %10, label %16, label %11

11:                                               ; preds = %1
  %12 = load ptr, ptr %4, align 8, !tbaa !18
  %13 = getelementptr inbounds nuw %struct.asn1_type_st, ptr %12, i32 0, i32 0
  %14 = load i32, ptr %13, align 8, !tbaa !20
  %15 = icmp ne i32 %14, 16
  br i1 %15, label %16, label %17

16:                                               ; preds = %11, %1
  store ptr null, ptr %2, align 8
  store i32 1, ptr %6, align 4
  br label %31

17:                                               ; preds = %11
  %18 = load ptr, ptr %4, align 8, !tbaa !18
  %19 = getelementptr inbounds nuw %struct.asn1_type_st, ptr %18, i32 0, i32 1
  %20 = load ptr, ptr %19, align 8, !tbaa !22
  %21 = getelementptr inbounds nuw %struct.asn1_string_st, ptr %20, i32 0, i32 2
  %22 = load ptr, ptr %21, align 8, !tbaa !17
  store ptr %22, ptr %5, align 8, !tbaa !23
  %23 = load ptr, ptr %4, align 8, !tbaa !18
  %24 = getelementptr inbounds nuw %struct.asn1_type_st, ptr %23, i32 0, i32 1
  %25 = load ptr, ptr %24, align 8, !tbaa !22
  %26 = getelementptr inbounds nuw %struct.asn1_string_st, ptr %25, i32 0, i32 0
  %27 = load i32, ptr %26, align 8, !tbaa !12
  %28 = sext i32 %27 to i64
  %29 = call ptr @X509_ALGORS_it()
  %30 = call ptr @ASN1_item_d2i(ptr noundef null, ptr noundef %5, i64 noundef %28, ptr noundef %29)
  store ptr %30, ptr %2, align 8
  store i32 1, ptr %6, align 4
  br label %31

31:                                               ; preds = %17, %16
  call void @llvm.lifetime.end.p0(i64 8, ptr %5) #4
  call void @llvm.lifetime.end.p0(i64 8, ptr %4) #4
  %32 = load ptr, ptr %2, align 8
  ret ptr %32
}