; Function Attrs: nounwind uwtable
define ptr @PKCS7_get_smimecap(ptr noundef %0) local_unnamed_addr #0 {
  %2 = alloca ptr, align 8
  call void @llvm.lifetime.start.p0(i64 8, ptr nonnull %2) #3
  %3 = tail call ptr @PKCS7_get_signed_attribute(ptr noundef %0, i32 noundef 167) #3
  %4 = icmp eq ptr %3, null
  br i1 %4, label %16, label %5

5:                                                ; preds = %1
  %6 = load i32, ptr %3, align 8, !tbaa !12
  %.not = icmp eq i32 %6, 16
  br i1 %.not, label %7, label %16

7:                                                ; preds = %5
  %8 = getelementptr inbounds nuw i8, ptr %3, i64 8
  %9 = load ptr, ptr %8, align 8, !tbaa !14
  %10 = getelementptr inbounds nuw i8, ptr %9, i64 8
  %11 = load ptr, ptr %10, align 8, !tbaa !11
  store ptr %11, ptr %2, align 8, !tbaa !15
  %12 = load i32, ptr %9, align 8, !tbaa !3
  %13 = sext i32 %12 to i64
  %14 = tail call ptr @X509_ALGORS_it() #3
  %15 = call ptr @ASN1_item_d2i(ptr noundef null, ptr noundef nonnull %2, i64 noundef %13, ptr noundef %14) #3
  br label %16

16:                                               ; preds = %1, %5, %7
  %.0 = phi ptr [ %15, %7 ], [ null, %5 ], [ null, %1 ]
  call void @llvm.lifetime.end.p0(i64 8, ptr nonnull %2) #3
  ret ptr %.0
}